target datalayout = "e-m:e-p270:32:32-p271:32:32-p272:64:64-i64:64-i128:128-f80:128-n8:16:32:64-S128"
target triple = "x86_64-unknown-linux-gnu"

%"struct.node::AssertionInfo" = type { ptr, ptr, ptr }
%"class.node::SocketAddress" = type { %"class.node::MemoryRetainer", %struct.sockaddr_storage }
%"class.node::MemoryRetainer" = type { ptr }
%struct.sockaddr_storage = type { i16, [118 x i8], i64 }
%struct.sockaddr = type { i16, [14 x i8] }

@_ZZN4node12_GLOBAL__N_112FromUVHandleI8uv_udp_sPFiPKS2_P8sockaddrPiEEENS_13SocketAddressET0_RKT_E4args = internal constant %"struct.node::AssertionInfo" { ptr @.str.94, ptr @.str.95, ptr @.str.97 }, align 8

; Function Attrs: mustprogress nounwind uwtable
define linkonce_odr dso_local noundef i64 @_ZN4node13SocketAddress9GetLengthEPK8sockaddr(ptr noundef %addr) #4 comdat align 2 {
entry:
  %addr.addr = alloca ptr, align 8
  store ptr %addr, ptr %addr.addr, align 8
  %0 = load ptr, ptr %addr.addr, align 8
  %sa_family = getelementptr inbounds %struct.sockaddr, ptr %0, i32 0, i32 0
  %1 = load i16, ptr %sa_family, align 2
  %conv = zext i16 %1 to i32
  %cmp = icmp eq i32 %conv, 2
  %cond = select i1 %cmp, i64 16, i64 28
  ret i64 %cond
}

; Function Attrs: mustprogress nounwind uwtable
define linkonce_odr dso_local void @_ZN4node14MemoryRetainerD2Ev(ptr noundef nonnull align 8 dereferenceable(8) %this) unnamed_addr #4 comdat align 2 {
entry:
  %this.addr = alloca ptr, align 8
  store ptr %this, ptr %this.addr, align 8
  ret void
}

; Function Attrs: mustprogress nounwind uwtable
define linkonce_odr dso_local noundef i64 @_ZN4node13SocketAddress9GetLengthEPK16sockaddr_storage(ptr noundef %addr) #4 comdat align 2 {
entry:
  %addr.addr = alloca ptr, align 8
  store ptr %addr, ptr %addr.addr, align 8
  %0 = load ptr, ptr %addr.addr, align 8
  %call = call noundef i64 @_ZN4node13SocketAddress9GetLengthEPK8sockaddr(ptr noundef %0)
  ret i64 %call
}

; Function Attrs: mustprogress nounwind uwtable
define linkonce_odr dso_local void @_ZN4node14MemoryRetainerC2Ev(ptr noundef nonnull align 8 dereferenceable(8) %this) unnamed_addr #4 comdat align 2 {
entry:
  %this.addr = alloca ptr, align 8
  store ptr %this, ptr %this.addr, align 8
  %this1 = load ptr, ptr %this.addr, align 8
  store ptr getelementptr inbounds ({ [10 x ptr] }, ptr @_ZTVN4node14MemoryRetainerE, i32 0, i32 0, i32 2), ptr %this1, align 8
  ret void
}

; Function Attrs: mustprogress nounwind uwtable
define linkonce_odr dso_local void @_ZN4node13SocketAddressD2Ev(ptr noundef nonnull align 8 dereferenceable(136) %this) unnamed_addr #4 comdat align 2 {
entry:
  %this.addr = alloca ptr, align 8
  store ptr %this, ptr %this.addr, align 8
  %this1 = load ptr, ptr %this.addr, align 8
  call void @_ZN4node14MemoryRetainerD2Ev(ptr noundef nonnull align 8 dereferenceable(8) %this1) #3
  ret void
}

; Function Attrs: mustprogress nounwind uwtable
define linkonce_odr dso_local noundef i64 @_ZNK4node13SocketAddress6lengthEv(ptr noundef nonnull align 8 dereferenceable(136) %this) #4 comdat align 2 {
entry:
  %this.addr = alloca ptr, align 8
  store ptr %this, ptr %this.addr, align 8
  %this1 = load ptr, ptr %this.addr, align 8
  %address_ = getelementptr inbounds %"class.node::SocketAddress", ptr %this1, i32 0, i32 1
  %call = call noundef i64 @_ZN4node13SocketAddress9GetLengthEPK16sockaddr_storage(ptr noundef %address_)
  ret i64 %call
}

; Function Attrs: mustprogress nounwind uwtable
define linkonce_odr dso_local noundef ptr @_ZN4node13SocketAddress7storageEv(ptr noundef nonnull align 8 dereferenceable(136) %this) #4 comdat align 2 {
entry:
  %this.addr = alloca ptr, align 8
  store ptr %this, ptr %this.addr, align 8
  %this1 = load ptr, ptr %this.addr, align 8
  %address_ = getelementptr inbounds %"class.node::SocketAddress", ptr %this1, i32 0, i32 1
  ret ptr %address_
}

; Function Attrs: mustprogress nounwind uwtable
define linkonce_odr dso_local void @_ZN4node13SocketAddressC2Ev(ptr noundef nonnull align 8 dereferenceable(136) %this) unnamed_addr #4 comdat align 2 {
entry:
  %this.addr = alloca ptr, align 8
  store ptr %this, ptr %this.addr, align 8
  %this1 = load ptr, ptr %this.addr, align 8
  call void @_ZN4node14MemoryRetainerC2Ev(ptr noundef nonnull align 8 dereferenceable(8) %this1) #3
  store ptr getelementptr inbounds ({ [10 x ptr] }, ptr @_ZTVN4node13SocketAddressE, i32 0, i32 0, i32 2), ptr %this1, align 8
  ret void
}

; Function Attrs: mustprogress nounwind uwtable
define internal void @_ZN4node12_GLOBAL__N_112FromUVHandleI8uv_udp_sPFiPKS2_P8sockaddrPiEEENS_13SocketAddressET0_RKT_(ptr noalias sret(%"class.node::SocketAddress") align 8 %agg.result, ptr noundef %fn, ptr noundef nonnull align 8 dereferenceable(216) %handle) #4 {
entry:
  %result.ptr = alloca ptr, align 8
  %fn.addr = alloca ptr, align 8
  %handle.addr = alloca ptr, align 8
  %nrvo = alloca i1, align 1
  %len = alloca i32, align 4
  store ptr %agg.result, ptr %result.ptr, align 8
  store ptr %fn, ptr %fn.addr, align 8
  store ptr %handle, ptr %handle.addr, align 8
  store i1 false, ptr %nrvo, align 1
  call void @_ZN4node13SocketAddressC2Ev(ptr noundef nonnull align 8 dereferenceable(136) %agg.result) #3
  store i32 128, ptr %len, align 4
  %0 = load ptr, ptr %fn.addr, align 8
  %1 = load ptr, ptr %handle.addr, align 8
  %call = call noundef ptr @_ZN4node13SocketAddress7storageEv(ptr noundef nonnull align 8 dereferenceable(136) %agg.result)
  %call1 = call noundef i32 %0(ptr noundef %1, ptr noundef %call, ptr noundef %len)
  %cmp = icmp eq i32 %call1, 0
  br i1 %cmp, label %if.then, label %if.else

if.then:                                          ; preds = %entry
  br label %do.body

do.body:                                          ; preds = %if.then
  %2 = load i32, ptr %len, align 4
  %conv = sext i32 %2 to i64
  %call2 = call noundef i64 @_ZNK4node13SocketAddress6lengthEv(ptr noundef nonnull align 8 dereferenceable(136) %agg.result)
  %cmp3 = icmp eq i64 %conv, %call2
  %lnot = xor i1 %cmp3, true
  %lnot4 = xor i1 %lnot, true
  %lnot5 = xor i1 %lnot4, true
  br i1 %lnot5, label %if.then7, label %if.end

if.then7:                                         ; preds = %do.body
  br label %do.body8

do.body8:                                         ; preds = %if.then7
  call void @_ZN4node6AssertERKNS_13AssertionInfoE(ptr noundef nonnull align 8 dereferenceable(24) @_ZZN4node12_GLOBAL__N_112FromUVHandleI8uv_udp_sPFiPKS2_P8sockaddrPiEEENS_13SocketAddressET0_RKT_E4args)
  call void @abort() #15
  unreachable

do.cond:                                          ; No predecessors!
  br label %do.end

do.end:                                           ; preds = %do.cond
  br label %if.end

if.end:                                           ; preds = %do.end, %do.body
  br label %do.cond9

do.cond9:                                         ; preds = %if.end
  br label %do.end10

do.end10:                                         ; preds = %do.cond9
  br label %if.end12

if.else:                                          ; preds = %entry
  %call11 = call noundef ptr @_ZN4node13SocketAddress7storageEv(ptr noundef nonnull align 8 dereferenceable(136) %agg.result)
  %sa_family = getelementptr inbounds %struct.sockaddr, ptr %call11, i32 0, i32 0
  store i16 0, ptr %sa_family, align 2
  br label %if.end12

if.end12:                                         ; preds = %if.else, %do.end10
  store i1 true, ptr %nrvo, align 1
  %nrvo.val = load i1, ptr %nrvo, align 1
  br i1 %nrvo.val, label %nrvo.skipdtor, label %nrvo.unused

nrvo.unused:                                      ; preds = %if.end12
  call void @_ZN4node13SocketAddressD2Ev(ptr noundef nonnull align 8 dereferenceable(136) %agg.result) #3
  br label %nrvo.skipdtor

nrvo.skipdtor:                                    ; preds = %nrvo.unused, %if.end12
  ret void
}

; Function Attrs: mustprogress nounwind uwtable
define dso_local void @_ZN4node13SocketAddress12FromSockNameERK8uv_udp_s(ptr noalias sret(%"class.node::SocketAddress") align 8 %agg.result, ptr noundef nonnull align 8 dereferenceable(216) %handle) #4 align 2 {
entry:
  %result.ptr = alloca ptr, align 8
  %handle.addr = alloca ptr, align 8
  store ptr %agg.result, ptr %result.ptr, align 8
  store ptr %handle, ptr %handle.addr, align 8
  %0 = load ptr, ptr %handle.addr, align 8
  call void @_ZN4node12_GLOBAL__N_112FromUVHandleI8uv_udp_sPFiPKS2_P8sockaddrPiEEENS_13SocketAddressET0_RKT_(ptr sret(%"class.node::SocketAddress") align 8 %agg.result, ptr noundef @uv_udp_getsockname, ptr noundef nonnull align 8 dereferenceable(216) %0)
  ret void
}