; Function Attrs: mustprogress nounwind uwtable
define dso_local void @_ZN4node13SocketAddress12FromSockNameERK8uv_udp_s(ptr noalias sret(%"class.node::SocketAddress") align 8 %agg.result, ptr noundef nonnull align 8 dereferenceable(216) %handle) local_unnamed_addr #3 align 2 {
entry:
  %len.i = alloca i32, align 4
  tail call void @llvm.experimental.noalias.scope.decl(metadata !9)
  call void @llvm.lifetime.start.p0(i64 4, ptr nonnull %len.i)
  store ptr getelementptr inbounds ({ [10 x ptr] }, ptr @_ZTVN4node13SocketAddressE, i64 0, i32 0, i64 2), ptr %agg.result, align 8, !alias.scope !9
  store i32 128, ptr %len.i, align 4, !noalias !9
  %address_.i.i = getelementptr inbounds i8, ptr %agg.result, i64 8
  %call1.i = call noundef i32 @uv_udp_getsockname(ptr noundef nonnull %handle, ptr noundef nonnull %address_.i.i, ptr noundef nonnull %len.i) #21, !callees !12
  %cmp.i = icmp eq i32 %call1.i, 0
  br i1 %cmp.i, label %do.body.i, label %if.else.i

do.body.i:                                        ; preds = %entry
  %0 = load i32, ptr %len.i, align 4, !noalias !9
  %conv.i = sext i32 %0 to i64
  %1 = load i16, ptr %address_.i.i, align 8, !alias.scope !9
  %cmp.i.i.i.i = icmp eq i16 %1, 2
  %cond.i.i.i.i = select i1 %cmp.i.i.i.i, i64 16, i64 28
  %cmp3.not.i = icmp eq i64 %cond.i.i.i.i, %conv.i
  br i1 %cmp3.not.i, label %_ZN4node12_GLOBAL__N_112FromUVHandleI8uv_udp_sPFiPKS2_P8sockaddrPiEEENS_13SocketAddressET0_RKT_.exit, label %do.body8.i

do.body8.i:                                       ; preds = %do.body.i
  call void @_ZN4node6AssertERKNS_13AssertionInfoE(ptr noundef nonnull align 8 dereferenceable(24) @_ZZN4node12_GLOBAL__N_112FromUVHandleI8uv_udp_sPFiPKS2_P8sockaddrPiEEENS_13SocketAddressET0_RKT_E4args) #21
  call void @abort() #22
  unreachable

if.else.i:                                        ; preds = %entry
  store i16 0, ptr %address_.i.i, align 8, !alias.scope !9
  br label %_ZN4node12_GLOBAL__N_112FromUVHandleI8uv_udp_sPFiPKS2_P8sockaddrPiEEENS_13SocketAddressET0_RKT_.exit

_ZN4node12_GLOBAL__N_112FromUVHandleI8uv_udp_sPFiPKS2_P8sockaddrPiEEENS_13SocketAddressET0_RKT_.exit: ; preds = %do.body.i, %if.else.i
  call void @llvm.lifetime.end.p0(i64 4, ptr nonnull %len.i)
  ret void
}